target datalayout = "e-m:e-p270:32:32-p271:32:32-p272:64:64-i64:64-i128:128-f80:128-n8:16:32:64-S128"
target triple = "x86_64-pc-linux-gnu"

%struct.AVCodecContext = type { ptr, i32, i32, ptr, i32, i32, ptr, ptr, ptr, i64, i32, i32, ptr, i32, %struct.AVRational, %struct.AVRational, %struct.AVRational, i32, i32, i32, i32, i32, %struct.AVRational, i32, i32, i32, i32, i32, i32, i32, i32, i32, i32, i32, ptr, ptr, i32, float, float, float, float, float, float, float, float, float, i32, i32, i32, i32, i32, i32, i32, i32, i32, i32, i32, i32, ptr, ptr, ptr, i32, i32, i32, i32, i32, i32, i32, i32, i32, i32, %struct.AVChannelLayout, i32, i32, i32, i32, i32, i32, i32, i32, ptr, i32, i32, i32, float, float, i32, i32, i32, i32, i32, ptr, i64, i64, float, float, i32, i32, ptr, ptr, i32, i32, i32, i32, i32, ptr, ptr, ptr, ptr, i32, i32, [8 x i64], i32, i32, i32, i32, i32, i32, i32, ptr, ptr, i32, i32, i32, i32, i32, i32, i32, i32, i32, i32, ptr, ptr, i32, i32, ptr, ptr, ptr, ptr, i32, i32, i64, i32, i32, i64, ptr, i64, ptr, i32, ptr, i32 }
%struct.AVRational = type { i32, i32 }
%struct.AVChannelLayout = type { i32, i32, %union.anon.0, ptr }
%union.anon.0 = type { i64 }
%struct.TM2Context = type { ptr, ptr, %struct.GetBitContext, i32, %struct.BswapDSPContext, ptr, i32, [7 x ptr], [7 x i32], [7 x i32], [7 x [64 x i32]], [4 x i32], [4 x i32], ptr, ptr, ptr, ptr, ptr, ptr, ptr, ptr, ptr, ptr, i32, i32, i32 }
%struct.GetBitContext = type { ptr, ptr, i32, i32, i32 }
%struct.BswapDSPContext = type { ptr, ptr }

@.str.2 = private unnamed_addr constant [40 x i8] c"Width and height must be multiple of 4\0A\00", align 1

; Function Attrs: cold nounwind optsize uwtable
define internal i32 @decode_init(ptr noundef %0) #0 {
  %2 = alloca i32, align 4
  %3 = alloca ptr, align 8
  %4 = alloca ptr, align 8
  %5 = alloca i32, align 4
  %6 = alloca i32, align 4
  %7 = alloca i32, align 4
  store ptr %0, ptr %3, align 8, !tbaa !4
  call void @llvm.lifetime.start.p0(i64 8, ptr %4) #10
  %8 = load ptr, ptr %3, align 8, !tbaa !4
  %9 = getelementptr inbounds nuw %struct.AVCodecContext, ptr %8, i32 0, i32 6
  %10 = load ptr, ptr %9, align 8, !tbaa !9
  store ptr %10, ptr %4, align 8, !tbaa !29
  call void @llvm.lifetime.start.p0(i64 4, ptr %5) #10
  %11 = load ptr, ptr %3, align 8, !tbaa !4
  %12 = getelementptr inbounds nuw %struct.AVCodecContext, ptr %11, i32 0, i32 18
  %13 = load i32, ptr %12, align 8, !tbaa !31
  store i32 %13, ptr %5, align 4, !tbaa !32
  call void @llvm.lifetime.start.p0(i64 4, ptr %6) #10
  %14 = load ptr, ptr %3, align 8, !tbaa !4
  %15 = getelementptr inbounds nuw %struct.AVCodecContext, ptr %14, i32 0, i32 19
  %16 = load i32, ptr %15, align 4, !tbaa !33
  store i32 %16, ptr %6, align 4, !tbaa !32
  %17 = load ptr, ptr %3, align 8, !tbaa !4
  %18 = getelementptr inbounds nuw %struct.AVCodecContext, ptr %17, i32 0, i32 18
  %19 = load i32, ptr %18, align 8, !tbaa !31
  %20 = and i32 %19, 3
  %21 = icmp ne i32 %20, 0
  br i1 %21, label %28, label %22

22:                                               ; preds = %1
  %23 = load ptr, ptr %3, align 8, !tbaa !4
  %24 = getelementptr inbounds nuw %struct.AVCodecContext, ptr %23, i32 0, i32 19
  %25 = load i32, ptr %24, align 4, !tbaa !33
  %26 = and i32 %25, 3
  %27 = icmp ne i32 %26, 0
  br i1 %27, label %28, label %30

28:                                               ; preds = %22, %1
  %29 = load ptr, ptr %3, align 8, !tbaa !4
  call void (ptr, i32, ptr, ...) @av_log(ptr noundef %29, i32 noundef 16, ptr noundef @.str.2)
  store i32 -22, ptr %2, align 4
  store i32 1, ptr %7, align 4
  br label %172

30:                                               ; preds = %22
  %31 = load ptr, ptr %3, align 8, !tbaa !4
  %32 = load ptr, ptr %4, align 8, !tbaa !29
  %33 = getelementptr inbounds nuw %struct.TM2Context, ptr %32, i32 0, i32 0
  store ptr %31, ptr %33, align 8, !tbaa !34
  %34 = load ptr, ptr %3, align 8, !tbaa !4
  %35 = getelementptr inbounds nuw %struct.AVCodecContext, ptr %34, i32 0, i32 23
  store i32 3, ptr %35, align 8, !tbaa !39
  %36 = call ptr @av_frame_alloc()
  %37 = load ptr, ptr %4, align 8, !tbaa !29
  %38 = getelementptr inbounds nuw %struct.TM2Context, ptr %37, i32 0, i32 1
  store ptr %36, ptr %38, align 8, !tbaa !40
  %39 = load ptr, ptr %4, align 8, !tbaa !29
  %40 = getelementptr inbounds nuw %struct.TM2Context, ptr %39, i32 0, i32 1
  %41 = load ptr, ptr %40, align 8, !tbaa !40
  %42 = icmp ne ptr %41, null
  br i1 %42, label %44, label %43

43:                                               ; preds = %30
  store i32 -12, ptr %2, align 4
  store i32 1, ptr %7, align 4
  br label %172

44:                                               ; preds = %30
  %45 = load ptr, ptr %4, align 8, !tbaa !29
  %46 = getelementptr inbounds nuw %struct.TM2Context, ptr %45, i32 0, i32 4
  call void @ff_bswapdsp_init(ptr noundef %46)
  %47 = load i32, ptr %5, align 4, !tbaa !32
  %48 = sext i32 %47 to i64
  %49 = call ptr @av_malloc_array(i64 noundef %48, i64 noundef 8)
  %50 = load ptr, ptr %4, align 8, !tbaa !29
  %51 = getelementptr inbounds nuw %struct.TM2Context, ptr %50, i32 0, i32 13
  store ptr %49, ptr %51, align 8, !tbaa !41
  %52 = load ptr, ptr %4, align 8, !tbaa !29
  %53 = getelementptr inbounds nuw %struct.TM2Context, ptr %52, i32 0, i32 13
  %54 = load ptr, ptr %53, align 8, !tbaa !41
  %55 = icmp ne ptr %54, null
  br i1 %55, label %57, label %56

56:                                               ; preds = %44
  store i32 -12, ptr %2, align 4
  store i32 1, ptr %7, align 4
  br label %172

57:                                               ; preds = %44
  %58 = load ptr, ptr %4, align 8, !tbaa !29
  %59 = getelementptr inbounds nuw %struct.TM2Context, ptr %58, i32 0, i32 13
  %60 = load ptr, ptr %59, align 8, !tbaa !41
  %61 = load i32, ptr %5, align 4, !tbaa !32
  %62 = sext i32 %61 to i64
  %63 = getelementptr inbounds i32, ptr %60, i64 %62
  %64 = load ptr, ptr %4, align 8, !tbaa !29
  %65 = getelementptr inbounds nuw %struct.TM2Context, ptr %64, i32 0, i32 14
  store ptr %63, ptr %65, align 8, !tbaa !42
  %66 = load i32, ptr %5, align 4, !tbaa !32
  %67 = add nsw i32 %66, 8
  store i32 %67, ptr %5, align 4, !tbaa !32
  %68 = load i32, ptr %6, align 4, !tbaa !32
  %69 = add nsw i32 %68, 8
  store i32 %69, ptr %6, align 4, !tbaa !32
  %70 = load i32, ptr %5, align 4, !tbaa !32
  %71 = load i32, ptr %6, align 4, !tbaa !32
  %72 = mul nsw i32 %70, %71
  %73 = sext i32 %72 to i64
  %74 = call noalias ptr @av_calloc(i64 noundef %73, i64 noundef 8)
  %75 = load ptr, ptr %4, align 8, !tbaa !29
  %76 = getelementptr inbounds nuw %struct.TM2Context, ptr %75, i32 0, i32 15
  store ptr %74, ptr %76, align 8, !tbaa !43
  %77 = load ptr, ptr %4, align 8, !tbaa !29
  %78 = getelementptr inbounds nuw %struct.TM2Context, ptr %77, i32 0, i32 15
  %79 = load ptr, ptr %78, align 8, !tbaa !43
  %80 = icmp ne ptr %79, null
  br i1 %80, label %82, label %81

81:                                               ; preds = %57
  store i32 -12, ptr %2, align 4
  store i32 1, ptr %7, align 4
  br label %172

82:                                               ; preds = %57
  %83 = load i32, ptr %5, align 4, !tbaa !32
  %84 = load ptr, ptr %4, align 8, !tbaa !29
  %85 = getelementptr inbounds nuw %struct.TM2Context, ptr %84, i32 0, i32 23
  store i32 %83, ptr %85, align 8, !tbaa !44
  %86 = load ptr, ptr %4, align 8, !tbaa !29
  %87 = getelementptr inbounds nuw %struct.TM2Context, ptr %86, i32 0, i32 15
  %88 = load ptr, ptr %87, align 8, !tbaa !43
  %89 = load ptr, ptr %4, align 8, !tbaa !29
  %90 = getelementptr inbounds nuw %struct.TM2Context, ptr %89, i32 0, i32 23
  %91 = load i32, ptr %90, align 8, !tbaa !44
  %92 = mul nsw i32 %91, 4
  %93 = sext i32 %92 to i64
  %94 = getelementptr inbounds i32, ptr %88, i64 %93
  %95 = getelementptr inbounds i32, ptr %94, i64 4
  %96 = load ptr, ptr %4, align 8, !tbaa !29
  %97 = getelementptr inbounds nuw %struct.TM2Context, ptr %96, i32 0, i32 17
  store ptr %95, ptr %97, align 8, !tbaa !45
  %98 = load ptr, ptr %4, align 8, !tbaa !29
  %99 = getelementptr inbounds nuw %struct.TM2Context, ptr %98, i32 0, i32 17
  %100 = load ptr, ptr %99, align 8, !tbaa !45
  %101 = load i32, ptr %5, align 4, !tbaa !32
  %102 = load i32, ptr %6, align 4, !tbaa !32
  %103 = mul nsw i32 %101, %102
  %104 = sext i32 %103 to i64
  %105 = getelementptr inbounds i32, ptr %100, i64 %104
  %106 = load ptr, ptr %4, align 8, !tbaa !29
  %107 = getelementptr inbounds nuw %struct.TM2Context, ptr %106, i32 0, i32 20
  store ptr %105, ptr %107, align 8, !tbaa !46
  %108 = load i32, ptr %5, align 4, !tbaa !32
  %109 = add nsw i32 %108, 1
  %110 = ashr i32 %109, 1
  store i32 %110, ptr %5, align 4, !tbaa !32
  %111 = load i32, ptr %6, align 4, !tbaa !32
  %112 = add nsw i32 %111, 1
  %113 = ashr i32 %112, 1
  store i32 %113, ptr %6, align 4, !tbaa !32
  %114 = load i32, ptr %5, align 4, !tbaa !32
  %115 = load i32, ptr %6, align 4, !tbaa !32
  %116 = mul nsw i32 %114, %115
  %117 = sext i32 %116 to i64
  %118 = call noalias ptr @av_calloc(i64 noundef %117, i64 noundef 16)
  %119 = load ptr, ptr %4, align 8, !tbaa !29
  %120 = getelementptr inbounds nuw %struct.TM2Context, ptr %119, i32 0, i32 16
  store ptr %118, ptr %120, align 8, !tbaa !47
  %121 = load ptr, ptr %4, align 8, !tbaa !29
  %122 = getelementptr inbounds nuw %struct.TM2Context, ptr %121, i32 0, i32 16
  %123 = load ptr, ptr %122, align 8, !tbaa !47
  %124 = icmp ne ptr %123, null
  br i1 %124, label %126, label %125

125:                                              ; preds = %82
  store i32 -12, ptr %2, align 4
  store i32 1, ptr %7, align 4
  br label %172

126:                                              ; preds = %82
  %127 = load i32, ptr %5, align 4, !tbaa !32
  %128 = load ptr, ptr %4, align 8, !tbaa !29
  %129 = getelementptr inbounds nuw %struct.TM2Context, ptr %128, i32 0, i32 24
  store i32 %127, ptr %129, align 4, !tbaa !48
  %130 = load ptr, ptr %4, align 8, !tbaa !29
  %131 = getelementptr inbounds nuw %struct.TM2Context, ptr %130, i32 0, i32 16
  %132 = load ptr, ptr %131, align 8, !tbaa !47
  %133 = load ptr, ptr %4, align 8, !tbaa !29
  %134 = getelementptr inbounds nuw %struct.TM2Context, ptr %133, i32 0, i32 24
  %135 = load i32, ptr %134, align 4, !tbaa !48
  %136 = mul nsw i32 %135, 2
  %137 = sext i32 %136 to i64
  %138 = getelementptr inbounds i32, ptr %132, i64 %137
  %139 = getelementptr inbounds i32, ptr %138, i64 2
  %140 = load ptr, ptr %4, align 8, !tbaa !29
  %141 = getelementptr inbounds nuw %struct.TM2Context, ptr %140, i32 0, i32 18
  store ptr %139, ptr %141, align 8, !tbaa !49
  %142 = load ptr, ptr %4, align 8, !tbaa !29
  %143 = getelementptr inbounds nuw %struct.TM2Context, ptr %142, i32 0, i32 18
  %144 = load ptr, ptr %143, align 8, !tbaa !49
  %145 = load i32, ptr %5, align 4, !tbaa !32
  %146 = load i32, ptr %6, align 4, !tbaa !32
  %147 = mul nsw i32 %145, %146
  %148 = sext i32 %147 to i64
  %149 = getelementptr inbounds i32, ptr %144, i64 %148
  %150 = load ptr, ptr %4, align 8, !tbaa !29
  %151 = getelementptr inbounds nuw %struct.TM2Context, ptr %150, i32 0, i32 21
  store ptr %149, ptr %151, align 8, !tbaa !50
  %152 = load ptr, ptr %4, align 8, !tbaa !29
  %153 = getelementptr inbounds nuw %struct.TM2Context, ptr %152, i32 0, i32 21
  %154 = load ptr, ptr %153, align 8, !tbaa !50
  %155 = load i32, ptr %5, align 4, !tbaa !32
  %156 = load i32, ptr %6, align 4, !tbaa !32
  %157 = mul nsw i32 %155, %156
  %158 = sext i32 %157 to i64
  %159 = getelementptr inbounds i32, ptr %154, i64 %158
  %160 = load ptr, ptr %4, align 8, !tbaa !29
  %161 = getelementptr inbounds nuw %struct.TM2Context, ptr %160, i32 0, i32 19
  store ptr %159, ptr %161, align 8, !tbaa !51
  %162 = load ptr, ptr %4, align 8, !tbaa !29
  %163 = getelementptr inbounds nuw %struct.TM2Context, ptr %162, i32 0, i32 19
  %164 = load ptr, ptr %163, align 8, !tbaa !51
  %165 = load i32, ptr %5, align 4, !tbaa !32
  %166 = load i32, ptr %6, align 4, !tbaa !32
  %167 = mul nsw i32 %165, %166
  %168 = sext i32 %167 to i64
  %169 = getelementptr inbounds i32, ptr %164, i64 %168
  %170 = load ptr, ptr %4, align 8, !tbaa !29
  %171 = getelementptr inbounds nuw %struct.TM2Context, ptr %170, i32 0, i32 22
  store ptr %169, ptr %171, align 8, !tbaa !52
  store i32 0, ptr %2, align 4
  store i32 1, ptr %7, align 4
  br label %172

172:                                              ; preds = %126, %125, %81, %56, %43, %28
  call void @llvm.lifetime.end.p0(i64 4, ptr %6) #10
  call void @llvm.lifetime.end.p0(i64 4, ptr %5) #10
  call void @llvm.lifetime.end.p0(i64 8, ptr %4) #10
  %173 = load i32, ptr %2, align 4
  ret i32 %173
}