; Function Attrs: cold nounwind optsize uwtable
define internal range(i32 -22, 1) i32 @decode_init(ptr noundef %0) #0 {
  %2 = getelementptr inbounds nuw i8, ptr %0, i64 32
  %3 = load ptr, ptr %2, align 8, !tbaa !4
  %4 = getelementptr inbounds nuw i8, ptr %0, i64 112
  %5 = load i32, ptr %4, align 8, !tbaa !27
  %6 = getelementptr inbounds nuw i8, ptr %0, i64 116
  %7 = load i32, ptr %6, align 4, !tbaa !28
  %8 = and i32 %5, 3
  %.not = icmp eq i32 %8, 0
  %9 = and i32 %7, 3
  %.not57 = icmp eq i32 %9, 0
  %or.cond = select i1 %.not, i1 %.not57, i1 false
  br i1 %or.cond, label %11, label %10

10:                                               ; preds = %1
  tail call void (ptr, i32, ptr, ...) @av_log(ptr noundef nonnull %0, i32 noundef 16, ptr noundef nonnull @.str.2) #8
  br label %59

11:                                               ; preds = %1
  store ptr %0, ptr %3, align 8, !tbaa !29
  %12 = getelementptr inbounds nuw i8, ptr %0, i64 136
  store i32 3, ptr %12, align 8, !tbaa !35
  %13 = tail call ptr @av_frame_alloc() #8
  %14 = getelementptr inbounds nuw i8, ptr %3, i64 8
  store ptr %13, ptr %14, align 8, !tbaa !36
  %.not58 = icmp eq ptr %13, null
  br i1 %.not58, label %59, label %15

15:                                               ; preds = %11
  %16 = getelementptr inbounds nuw i8, ptr %3, i64 56
  tail call void @ff_bswapdsp_init(ptr noundef nonnull %16) #8
  %17 = sext i32 %5 to i64
  %18 = tail call ptr @av_malloc_array(i64 noundef %17, i64 noundef 8) #8
  %19 = getelementptr inbounds nuw i8, ptr %3, i64 2024
  store ptr %18, ptr %19, align 8, !tbaa !37
  %.not59 = icmp eq ptr %18, null
  br i1 %.not59, label %59, label %20

20:                                               ; preds = %15
  %21 = getelementptr inbounds i32, ptr %18, i64 %17
  %22 = getelementptr inbounds nuw i8, ptr %3, i64 2032
  store ptr %21, ptr %22, align 8, !tbaa !38
  %23 = add nsw i32 %5, 8
  %24 = add nsw i32 %7, 8
  %25 = mul nsw i32 %24, %23
  %26 = sext i32 %25 to i64
  %27 = tail call noalias ptr @av_calloc(i64 noundef %26, i64 noundef 8) #8
  %28 = getelementptr inbounds nuw i8, ptr %3, i64 2040
  store ptr %27, ptr %28, align 8, !tbaa !39
  %.not60 = icmp eq ptr %27, null
  br i1 %.not60, label %59, label %29

29:                                               ; preds = %20
  %30 = getelementptr inbounds nuw i8, ptr %3, i64 2104
  store i32 %23, ptr %30, align 8, !tbaa !40
  %31 = shl nsw i32 %23, 2
  %32 = sext i32 %31 to i64
  %33 = getelementptr inbounds i32, ptr %27, i64 %32
  %34 = getelementptr inbounds nuw i8, ptr %33, i64 16
  %35 = getelementptr inbounds nuw i8, ptr %3, i64 2056
  store ptr %34, ptr %35, align 8, !tbaa !41
  %36 = getelementptr inbounds i32, ptr %34, i64 %26
  %37 = getelementptr inbounds nuw i8, ptr %3, i64 2080
  store ptr %36, ptr %37, align 8, !tbaa !42
  %38 = add nsw i32 %5, 9
  %39 = ashr i32 %38, 1
  %40 = add nsw i32 %7, 9
  %41 = ashr i32 %40, 1
  %42 = mul nsw i32 %41, %39
  %43 = sext i32 %42 to i64
  %44 = tail call noalias ptr @av_calloc(i64 noundef %43, i64 noundef 16) #8
  %45 = getelementptr inbounds nuw i8, ptr %3, i64 2048
  store ptr %44, ptr %45, align 8, !tbaa !43
  %.not61 = icmp eq ptr %44, null
  br i1 %.not61, label %59, label %46

46:                                               ; preds = %29
  %47 = getelementptr inbounds nuw i8, ptr %3, i64 2108
  store i32 %39, ptr %47, align 4, !tbaa !44
  %48 = and i32 %38, -4
  %49 = sext i32 %48 to i64
  %50 = getelementptr inbounds i32, ptr %44, i64 %49
  %51 = getelementptr inbounds nuw i8, ptr %50, i64 8
  %52 = getelementptr inbounds nuw i8, ptr %3, i64 2064
  store ptr %51, ptr %52, align 8, !tbaa !45
  %53 = getelementptr inbounds i32, ptr %51, i64 %43
  %54 = getelementptr inbounds nuw i8, ptr %3, i64 2088
  store ptr %53, ptr %54, align 8, !tbaa !46
  %55 = getelementptr inbounds i32, ptr %53, i64 %43
  %56 = getelementptr inbounds nuw i8, ptr %3, i64 2072
  store ptr %55, ptr %56, align 8, !tbaa !47
  %57 = getelementptr inbounds i32, ptr %55, i64 %43
  %58 = getelementptr inbounds nuw i8, ptr %3, i64 2096
  store ptr %57, ptr %58, align 8, !tbaa !48
  br label %59

59:                                               ; preds = %29, %20, %15, %11, %46, %10
  %.0 = phi i32 [ -22, %10 ], [ 0, %46 ], [ -12, %11 ], [ -12, %15 ], [ -12, %20 ], [ -12, %29 ]
  ret i32 %.0
}